target datalayout = "e-m:e-p270:32:32-p271:32:32-p272:64:64-i64:64-i128:128-f80:128-n8:16:32:64-S128"
target triple = "x86_64-pc-linux-gnu"

%"class.std::__cxx11::basic_string" = type { %"struct.std::__cxx11::basic_string<char>::_Alloc_hider", i64, %union.anon }
%"struct.std::__cxx11::basic_string<char>::_Alloc_hider" = type { ptr }
%union.anon = type { i64, [8 x i8] }
%struct.rocksdb_column_family_metadata_t = type { %"struct.rocksdb::ColumnFamilyMetaData" }
%"struct.rocksdb::ColumnFamilyMetaData" = type { i64, i64, %"class.std::__cxx11::basic_string", %"class.std::vector.283", i64, i64, %"class.std::vector.288" }
%"class.std::vector.283" = type { %"struct.std::_Vector_base.284" }
%"struct.std::_Vector_base.284" = type { %"struct.std::_Vector_base<rocksdb::LevelMetaData, std::allocator<rocksdb::LevelMetaData>>::_Vector_impl" }
%"struct.std::_Vector_base<rocksdb::LevelMetaData, std::allocator<rocksdb::LevelMetaData>>::_Vector_impl" = type { %"struct.std::_Vector_base<rocksdb::LevelMetaData, std::allocator<rocksdb::LevelMetaData>>::_Vector_impl_data" }
%"struct.std::_Vector_base<rocksdb::LevelMetaData, std::allocator<rocksdb::LevelMetaData>>::_Vector_impl_data" = type { ptr, ptr, ptr }
%"class.std::vector.288" = type { %"struct.std::_Vector_base.289" }
%"struct.std::_Vector_base.289" = type { %"struct.std::_Vector_base<rocksdb::BlobMetaData, std::allocator<rocksdb::BlobMetaData>>::_Vector_impl" }
%"struct.std::_Vector_base<rocksdb::BlobMetaData, std::allocator<rocksdb::BlobMetaData>>::_Vector_impl" = type { %"struct.std::_Vector_base<rocksdb::BlobMetaData, std::allocator<rocksdb::BlobMetaData>>::_Vector_impl_data" }
%"struct.std::_Vector_base<rocksdb::BlobMetaData, std::allocator<rocksdb::BlobMetaData>>::_Vector_impl_data" = type { ptr, ptr, ptr }
%struct.rocksdb_level_metadata_t = type { ptr }
%"struct.rocksdb::LevelMetaData" = type { i32, i64, %"class.std::vector.293" }
%"class.std::vector.293" = type { %"struct.std::_Vector_base.294" }
%"struct.std::_Vector_base.294" = type { %"struct.std::_Vector_base<rocksdb::SstFileMetaData, std::allocator<rocksdb::SstFileMetaData>>::_Vector_impl" }
%"struct.std::_Vector_base<rocksdb::SstFileMetaData, std::allocator<rocksdb::SstFileMetaData>>::_Vector_impl" = type { %"struct.std::_Vector_base<rocksdb::SstFileMetaData, std::allocator<rocksdb::SstFileMetaData>>::_Vector_impl_data" }
%"struct.std::_Vector_base<rocksdb::SstFileMetaData, std::allocator<rocksdb::SstFileMetaData>>::_Vector_impl_data" = type { ptr, ptr, ptr }

; Function Attrs: mustprogress nounwind uwtable
define linkonce_odr noundef nonnull align 8 dereferenceable(40) ptr @_ZNSt6vectorIN7rocksdb13LevelMetaDataESaIS1_EEixEm(ptr noundef nonnull align 8 dereferenceable(24) %0, i64 noundef %1) #2 comdat align 2 {
  %3 = alloca ptr, align 8
  %4 = alloca i64, align 8
  store ptr %0, ptr %3, align 8, !tbaa !1182
  store i64 %1, ptr %4, align 8, !tbaa !103
  %5 = load ptr, ptr %3, align 8
  %6 = getelementptr inbounds nuw %"struct.std::_Vector_base.284", ptr %5, i32 0, i32 0
  %7 = getelementptr inbounds nuw %"struct.std::_Vector_base<rocksdb::LevelMetaData, std::allocator<rocksdb::LevelMetaData>>::_Vector_impl_data", ptr %6, i32 0, i32 0
  %8 = load ptr, ptr %7, align 8, !tbaa !1185
  %9 = load i64, ptr %4, align 8, !tbaa !103
  %10 = getelementptr inbounds nuw %"struct.rocksdb::LevelMetaData", ptr %8, i64 %9
  ret ptr %10
}

; Function Attrs: mustprogress nounwind uwtable
define linkonce_odr noundef i64 @_ZNKSt6vectorIN7rocksdb13LevelMetaDataESaIS1_EE4sizeEv(ptr noundef nonnull align 8 dereferenceable(24) %0) #2 comdat align 2 {
  %2 = alloca ptr, align 8
  store ptr %0, ptr %2, align 8, !tbaa !1182
  %3 = load ptr, ptr %2, align 8
  %4 = getelementptr inbounds nuw %"struct.std::_Vector_base.284", ptr %3, i32 0, i32 0
  %5 = getelementptr inbounds nuw %"struct.std::_Vector_base<rocksdb::LevelMetaData, std::allocator<rocksdb::LevelMetaData>>::_Vector_impl_data", ptr %4, i32 0, i32 1
  %6 = load ptr, ptr %5, align 8, !tbaa !1184
  %7 = getelementptr inbounds nuw %"struct.std::_Vector_base.284", ptr %3, i32 0, i32 0
  %8 = getelementptr inbounds nuw %"struct.std::_Vector_base<rocksdb::LevelMetaData, std::allocator<rocksdb::LevelMetaData>>::_Vector_impl_data", ptr %7, i32 0, i32 0
  %9 = load ptr, ptr %8, align 8, !tbaa !1185
  %10 = ptrtoint ptr %6 to i64
  %11 = ptrtoint ptr %9 to i64
  %12 = sub i64 %10, %11
  %13 = sdiv exact i64 %12, 40
  ret i64 %13
}

; Function Attrs: mustprogress nounwind uwtable
define ptr @rocksdb_column_family_metadata_get_level_metadata(ptr noundef %0, i64 noundef %1) #2 {
  %3 = alloca ptr, align 8
  %4 = alloca ptr, align 8
  %5 = alloca i64, align 8
  %6 = alloca ptr, align 8
  store ptr %0, ptr %4, align 8, !tbaa !1164
  store i64 %1, ptr %5, align 8, !tbaa !103
  %7 = load i64, ptr %5, align 8, !tbaa !103
  %8 = load ptr, ptr %4, align 8, !tbaa !1164
  %9 = getelementptr inbounds nuw %struct.rocksdb_column_family_metadata_t, ptr %8, i32 0, i32 0
  %10 = getelementptr inbounds nuw %"struct.rocksdb::ColumnFamilyMetaData", ptr %9, i32 0, i32 3
  %11 = call noundef i64 @_ZNKSt6vectorIN7rocksdb13LevelMetaDataESaIS1_EE4sizeEv(ptr noundef nonnull align 8 dereferenceable(24) %10) #24
  %12 = icmp uge i64 %7, %11
  br i1 %12, label %13, label %14

13:                                               ; preds = %2
  store ptr null, ptr %3, align 8
  br label %24

14:                                               ; preds = %2
  call void @llvm.lifetime.start.p0(i64 8, ptr %6) #24
  %15 = call noalias ptr @malloc(i64 noundef 8) #29
  store ptr %15, ptr %6, align 8, !tbaa !1186
  %16 = load ptr, ptr %4, align 8, !tbaa !1164
  %17 = getelementptr inbounds nuw %struct.rocksdb_column_family_metadata_t, ptr %16, i32 0, i32 0
  %18 = getelementptr inbounds nuw %"struct.rocksdb::ColumnFamilyMetaData", ptr %17, i32 0, i32 3
  %19 = load i64, ptr %5, align 8, !tbaa !103
  %20 = call noundef nonnull align 8 dereferenceable(40) ptr @_ZNSt6vectorIN7rocksdb13LevelMetaDataESaIS1_EEixEm(ptr noundef nonnull align 8 dereferenceable(24) %18, i64 noundef %19) #24
  %21 = load ptr, ptr %6, align 8, !tbaa !1186
  %22 = getelementptr inbounds nuw %struct.rocksdb_level_metadata_t, ptr %21, i32 0, i32 0
  store ptr %20, ptr %22, align 8, !tbaa !1188
  %23 = load ptr, ptr %6, align 8, !tbaa !1186
  store ptr %23, ptr %3, align 8
  call void @llvm.lifetime.end.p0(i64 8, ptr %6) #24
  br label %24

24:                                               ; preds = %14, %13
  %25 = load ptr, ptr %3, align 8
  ret ptr %25
}