; Function Attrs: mustprogress nofree nounwind willreturn memory(write, argmem: read, inaccessiblemem: readwrite) uwtable
define noalias noundef ptr @rocksdb_column_family_metadata_get_level_metadata(ptr noundef readonly captures(none) %0, i64 noundef %1) local_unnamed_addr #26 {
  %3 = getelementptr inbounds nuw i8, ptr %0, i64 48
  %4 = getelementptr inbounds nuw i8, ptr %0, i64 56
  %5 = load ptr, ptr %4, align 8, !tbaa !1123
  %6 = load ptr, ptr %3, align 8, !tbaa !1120
  %7 = ptrtoint ptr %5 to i64
  %8 = ptrtoint ptr %6 to i64
  %9 = sub i64 %7, %8
  %10 = sdiv exact i64 %9, 40
  %.not = icmp ult i64 %1, %10
  br i1 %.not, label %11, label %14

11:                                               ; preds = %2
  %12 = tail call noalias dereferenceable_or_null(8) ptr @malloc(i64 noundef 8) #48
  %13 = getelementptr inbounds nuw %"struct.rocksdb::LevelMetaData", ptr %6, i64 %1
  store ptr %13, ptr %12, align 8, !tbaa !1144
  br label %14

14:                                               ; preds = %2, %11
  %.0 = phi ptr [ %12, %11 ], [ null, %2 ]
  ret ptr %.0
}